; Function Attrs: mustprogress nounwind uwtable
define internal fastcc void @_ZN4llvm12ImmutableMapIN12_GLOBAL__N_110BindingKeyEN5clang4ento4SValENS_16ImutKeyValueInfoIS2_S5_EEE8iteratorD2Ev(ptr noundef nonnull align 8 dereferenceable(176) %0) unnamed_addr #2 align 2 {
  %2 = tail call noundef i64 @_ZNK4llvm15SmallVectorBaseIjE4sizeEv(ptr noundef nonnull align 8 dereferenceable(176) %0) #17
  %3 = load ptr, ptr %0, align 8
  %4 = getelementptr inbounds nuw i8, ptr %0, i64 16
  %5 = icmp eq ptr %3, %4
  br i1 %5, label %_ZN4llvm20ImutAVLValueIteratorINS_12ImmutableMapIN12_GLOBAL__N_110BindingKeyEN5clang4ento4SValENS_16ImutKeyValueInfoIS3_S6_EEEEED2Ev.exit, label %6

6:                                                ; preds = %1
  tail call void @free(ptr noundef %3) #17
  br label %_ZN4llvm20ImutAVLValueIteratorINS_12ImmutableMapIN12_GLOBAL__N_110BindingKeyEN5clang4ento4SValENS_16ImutKeyValueInfoIS3_S6_EEEEED2Ev.exit

_ZN4llvm20ImutAVLValueIteratorINS_12ImmutableMapIN12_GLOBAL__N_110BindingKeyEN5clang4ento4SValENS_16ImutKeyValueInfoIS3_S6_EEEEED2Ev.exit: ; preds = %1, %6
  ret void
}